; ModuleID = 'probe1.84fcdf3f-cgu.0'
source_filename = "probe1.84fcdf3f-cgu.0"
target datalayout = "e-m:x-p:32:32-p270:32:32-p271:32:32-p272:64:64-i64:64-f80:32-n8:16:32-a:0:32-S32"
target triple = "i686-pc-windows-gnu"

%"alloc::string::String" = type { %"alloc::vec::Vec<u8>" }
%"alloc::vec::Vec<u8>" = type { { i8*, i32 }, i32 }
%"core::fmt::Arguments" = type { { [0 x { [0 x i8]*, i32 }]*, i32 }, { i32*, i32 }, { [0 x { i8*, i32* }]*, i32 } }
%"core::option::Option<(core::ptr::non_null::NonNull<u8>, core::alloc::layout::Layout)>" = type { {}*, [2 x i32] }
%"core::option::Option<(core::ptr::non_null::NonNull<u8>, core::alloc::layout::Layout)>::Some" = type { { i8*, { i32, i32 } } }
%"alloc::alloc::Global" = type {}
%"core::ptr::metadata::PtrRepr<[u8]>" = type { [2 x i32] }
%"core::fmt::Formatter" = type { i32, i32, { i32, i32 }, { i32, i32 }, { {}*, [3 x i32]* }, i8, [3 x i8] }
%"core::fmt::Opaque" = type {}
%"core::panic::location::Location" = type { { [0 x i8]*, i32 }, i32, i32 }
%"unwind::libunwind::_Unwind_Exception" = type { i64, void (i32, %"unwind::libunwind::_Unwind_Exception"*)*, [5 x i32] }
%"unwind::libunwind::_Unwind_Context" = type { [0 x i8] }

@alloc2 = private unnamed_addr constant <{ [0 x i8] }> zeroinitializer, align 1
@alloc3 = private unnamed_addr constant <{ i8*, [4 x i8] }> <{ i8* getelementptr inbounds (<{ [0 x i8] }>, <{ [0 x i8] }>* @alloc2, i32 0, i32 0, i32 0), [4 x i8] zeroinitializer }>, align 4
@alloc5 = private unnamed_addr constant <{ [4 x i8] }> zeroinitializer, align 4
@alloc25 = private unnamed_addr constant <{ [12 x i8] }> <{ [12 x i8] c"invalid args" }>, align 1
@alloc26 = private unnamed_addr constant <{ [75 x i8] }> <{ [75 x i8] c"/rustc/9d1b2106e23b1abd32fce1f17267604a5102f57a\\library\\core\\src\\fmt\\mod.rs" }>, align 1
@alloc27 = private unnamed_addr constant <{ i8*, [12 x i8] }> <{ i8* getelementptr inbounds (<{ [75 x i8] }>, <{ [75 x i8] }>* @alloc26, i32 0, i32 0, i32 0), [12 x i8] c"K\00\00\00k\01\00\00\0D\00\00\00" }>, align 4

; core::ptr::drop_in_place<alloc::string::String>
; Function Attrs: uwtable
define void @"_ZN4core3ptr42drop_in_place$LT$alloc..string..String$GT$17hb23ce62597f878b5E"(%"alloc::string::String"* %_1) unnamed_addr #0 {
start:
  %0 = bitcast %"alloc::string::String"* %_1 to %"alloc::vec::Vec<u8>"*
; call core::ptr::drop_in_place<alloc::vec::Vec<u8>>
  call void @"_ZN4core3ptr46drop_in_place$LT$alloc..vec..Vec$LT$u8$GT$$GT$17hb517cedd57339283E"(%"alloc::vec::Vec<u8>"* %0)
  br label %bb1

bb1:                                              ; preds = %start
  ret void
}

; core::ptr::drop_in_place<alloc::vec::Vec<u8>>
; Function Attrs: uwtable
define void @"_ZN4core3ptr46drop_in_place$LT$alloc..vec..Vec$LT$u8$GT$$GT$17hb517cedd57339283E"(%"alloc::vec::Vec<u8>"* %_1) unnamed_addr #0 personality i32 (i32, i32, i64, %"unwind::libunwind::_Unwind_Exception"*, %"unwind::libunwind::_Unwind_Context"*)* @rust_eh_personality {
start:
  %0 = alloca { i8*, i32 }, align 4
; invoke <alloc::vec::Vec<T,A> as core::ops::drop::Drop>::drop
  invoke void @"_ZN70_$LT$alloc..vec..Vec$LT$T$C$A$GT$$u20$as$u20$core..ops..drop..Drop$GT$4drop17h13a40ed4aa199ba4E"(%"alloc::vec::Vec<u8>"* align 4 dereferenceable(12) %_1)
          to label %bb4 unwind label %cleanup

bb4:                                              ; preds = %start
  %1 = bitcast %"alloc::vec::Vec<u8>"* %_1 to { i8*, i32 }*
; call core::ptr::drop_in_place<alloc::raw_vec::RawVec<u8>>
  call void @"_ZN4core3ptr53drop_in_place$LT$alloc..raw_vec..RawVec$LT$u8$GT$$GT$17h9cac5483e2e2cc10E"({ i8*, i32 }* %1)
  br label %bb2

bb3:                                              ; preds = %cleanup
  %2 = bitcast %"alloc::vec::Vec<u8>"* %_1 to { i8*, i32 }*
; call core::ptr::drop_in_place<alloc::raw_vec::RawVec<u8>>
  call void @"_ZN4core3ptr53drop_in_place$LT$alloc..raw_vec..RawVec$LT$u8$GT$$GT$17h9cac5483e2e2cc10E"({ i8*, i32 }* %2) #6
  br label %bb1

cleanup:                                          ; preds = %start
  %3 = landingpad { i8*, i32 }
          cleanup
  %4 = extractvalue { i8*, i32 } %3, 0
  %5 = extractvalue { i8*, i32 } %3, 1
  %6 = getelementptr inbounds { i8*, i32 }, { i8*, i32 }* %0, i32 0, i32 0
  store i8* %4, i8** %6, align 4
  %7 = getelementptr inbounds { i8*, i32 }, { i8*, i32 }* %0, i32 0, i32 1
  store i32 %5, i32* %7, align 4
  br label %bb3

bb1:                                              ; preds = %bb3
  %8 = bitcast { i8*, i32 }* %0 to i8**
  %9 = load i8*, i8** %8, align 4
  %10 = getelementptr inbounds { i8*, i32 }, { i8*, i32 }* %0, i32 0, i32 1
  %11 = load i32, i32* %10, align 4
  %12 = insertvalue { i8*, i32 } undef, i8* %9, 0
  %13 = insertvalue { i8*, i32 } %12, i32 %11, 1
  resume { i8*, i32 } %13

bb2:                                              ; preds = %bb4
  ret void
}

; core::ptr::drop_in_place<alloc::raw_vec::RawVec<u8>>
; Function Attrs: uwtable
define void @"_ZN4core3ptr53drop_in_place$LT$alloc..raw_vec..RawVec$LT$u8$GT$$GT$17h9cac5483e2e2cc10E"({ i8*, i32 }* %_1) unnamed_addr #0 {
start:
; call <alloc::raw_vec::RawVec<T,A> as core::ops::drop::Drop>::drop
  call void @"_ZN77_$LT$alloc..raw_vec..RawVec$LT$T$C$A$GT$$u20$as$u20$core..ops..drop..Drop$GT$4drop17h2f04a6a41250f90fE"({ i8*, i32 }* align 4 dereferenceable(8) %_1)
  br label %bb1

bb1:                                              ; preds = %start
  ret void
}

; probe1::probe
; Function Attrs: uwtable
define void @_ZN6probe15probe17h7d5296ef2a6c2697E() unnamed_addr #0 {
start:
  %_11 = alloca i32*, align 4
  %_10 = alloca [1 x { i8*, i32* }], align 4
  %_3 = alloca %"core::fmt::Arguments", align 4
  %res = alloca %"alloc::string::String", align 4
  %_1 = alloca %"alloc::string::String", align 4
  store i32* bitcast (<{ [4 x i8] }>* @alloc5 to i32*), i32** %_11, align 4
  %_args = load i32*, i32** %_11, align 4, !nonnull !1
; call core::fmt::ArgumentV1::new
  %0 = call { i8*, i32* } @_ZN4core3fmt10ArgumentV13new17he06e9749c41ba732E(i32* align 4 dereferenceable(4) %_args, i1 (i32*, %"core::fmt::Formatter"*)* nonnull @"_ZN4core3fmt3num3imp55_$LT$impl$u20$core..fmt..LowerExp$u20$for$u20$isize$GT$3fmt17h0a79f3cb35f043a2E")
  %_14.0 = extractvalue { i8*, i32* } %0, 0
  %_14.1 = extractvalue { i8*, i32* } %0, 1
  br label %bb1

bb1:                                              ; preds = %start
  %1 = bitcast [1 x { i8*, i32* }]* %_10 to { i8*, i32* }*
  %2 = getelementptr inbounds { i8*, i32* }, { i8*, i32* }* %1, i32 0, i32 0
  store i8* %_14.0, i8** %2, align 4
  %3 = getelementptr inbounds { i8*, i32* }, { i8*, i32* }* %1, i32 0, i32 1
  store i32* %_14.1, i32** %3, align 4
  %_7.0 = bitcast [1 x { i8*, i32* }]* %_10 to [0 x { i8*, i32* }]*
; call core::fmt::Arguments::new_v1
  call void @_ZN4core3fmt9Arguments6new_v117h2232bd004bee0a68E(%"core::fmt::Arguments"* noalias nocapture sret(%"core::fmt::Arguments") dereferenceable(24) %_3, [0 x { [0 x i8]*, i32 }]* nonnull align 4 bitcast (<{ i8*, [4 x i8] }>* @alloc3 to [0 x { [0 x i8]*, i32 }]*), i32 1, [0 x { i8*, i32* }]* nonnull align 4 %_7.0, i32 1)
  br label %bb2

bb2:                                              ; preds = %bb1
; call alloc::fmt::format
  call void @_ZN5alloc3fmt6format17h40feed6254217e4eE(%"alloc::string::String"* noalias nocapture sret(%"alloc::string::String") dereferenceable(12) %res, %"core::fmt::Arguments"* noalias nocapture dereferenceable(24) %_3)
  br label %bb3

bb3:                                              ; preds = %bb2
  %4 = bitcast %"alloc::string::String"* %_1 to i8*
  %5 = bitcast %"alloc::string::String"* %res to i8*
  call void @llvm.memcpy.p0i8.p0i8.i32(i8* align 4 %4, i8* align 4 %5, i32 12, i1 false)
; call core::ptr::drop_in_place<alloc::string::String>
  call void @"_ZN4core3ptr42drop_in_place$LT$alloc..string..String$GT$17hb23ce62597f878b5E"(%"alloc::string::String"* %_1)
  br label %bb4

bb4:                                              ; preds = %bb3
  ret void
}

; alloc::raw_vec::RawVec<T,A>::ptr
; Function Attrs: inlinehint uwtable
define i8* @"_ZN5alloc7raw_vec19RawVec$LT$T$C$A$GT$3ptr17h9d12bc8dde303465E"({ i8*, i32 }* align 4 dereferenceable(8) %self) unnamed_addr #1 {
start:
  %0 = bitcast { i8*, i32 }* %self to i8**
  %_2 = load i8*, i8** %0, align 4, !nonnull !1
; call core::ptr::unique::Unique<T>::as_ptr
  %1 = call i8* @"_ZN4core3ptr6unique15Unique$LT$T$GT$6as_ptr17h1b282352fbc31614E"(i8* nonnull %_2)
  br label %bb1

bb1:                                              ; preds = %start
  ret i8* %1
}

; alloc::raw_vec::RawVec<T,A>::current_memory
; Function Attrs: uwtable
define void @"_ZN5alloc7raw_vec19RawVec$LT$T$C$A$GT$14current_memory17h763d8a802df9cdd0E"(%"core::option::Option<(core::ptr::non_null::NonNull<u8>, core::alloc::layout::Layout)>"* noalias nocapture sret(%"core::option::Option<(core::ptr::non_null::NonNull<u8>, core::alloc::layout::Layout)>") dereferenceable(12) %0, { i8*, i32 }* align 4 dereferenceable(8) %self) unnamed_addr #0 {
start:
  %_13 = alloca { i8*, { i32, i32 } }, align 4
  %_2 = alloca i8, align 1
  br label %bb4

bb4:                                              ; preds = %start
  %1 = icmp eq i32 1, 0
  br i1 %1, label %bb1, label %bb2

bb1:                                              ; preds = %bb4
  store i8 1, i8* %_2, align 1
  br label %bb3

bb2:                                              ; preds = %bb4
  %2 = getelementptr inbounds { i8*, i32 }, { i8*, i32 }* %self, i32 0, i32 1
  %_5 = load i32, i32* %2, align 4
  %_4 = icmp eq i32 %_5, 0
  %3 = zext i1 %_4 to i8
  store i8 %3, i8* %_2, align 1
  br label %bb3

bb3:                                              ; preds = %bb1, %bb2
  %4 = load i8, i8* %_2, align 1, !range !2
  %5 = trunc i8 %4 to i1
  br i1 %5, label %bb5, label %bb6

bb6:                                              ; preds = %bb3
  br label %bb7

bb5:                                              ; preds = %bb3
  %6 = bitcast %"core::option::Option<(core::ptr::non_null::NonNull<u8>, core::alloc::layout::Layout)>"* %0 to {}**
  store {}* null, {}** %6, align 4
  br label %bb12

bb12:                                             ; preds = %bb11, %bb5
  ret void

bb7:                                              ; preds = %bb6
  br label %bb8

bb8:                                              ; preds = %bb7
  %7 = getelementptr inbounds { i8*, i32 }, { i8*, i32 }* %self, i32 0, i32 1
  %_9 = load i32, i32* %7, align 4
  %size = mul i32 1, %_9
; call core::alloc::layout::Layout::from_size_align_unchecked
  %8 = call { i32, i32 } @_ZN4core5alloc6layout6Layout25from_size_align_unchecked17h5a3756bd8ba8830aE(i32 %size, i32 1)
  %layout.0 = extractvalue { i32, i32 } %8, 0
  %layout.1 = extractvalue { i32, i32 } %8, 1
  br label %bb9

bb9:                                              ; preds = %bb8
  %9 = bitcast { i8*, i32 }* %self to i8**
  %_16 = load i8*, i8** %9, align 4, !nonnull !1
; call core::ptr::unique::Unique<T>::cast
  %_15 = call nonnull i8* @"_ZN4core3ptr6unique15Unique$LT$T$GT$4cast17h254ae24d35b86616E"(i8* nonnull %_16)
  br label %bb10

bb10:                                             ; preds = %bb9
; call <T as core::convert::Into<U>>::into
  %_14 = call nonnull i8* @"_ZN50_$LT$T$u20$as$u20$core..convert..Into$LT$U$GT$$GT$4into17h1e73537cf24fa724E"(i8* nonnull %_15)
  br label %bb11

bb11:                                             ; preds = %bb10
  %10 = bitcast { i8*, { i32, i32 } }* %_13 to i8**
  store i8* %_14, i8** %10, align 4
  %11 = getelementptr inbounds { i8*, { i32, i32 } }, { i8*, { i32, i32 } }* %_13, i32 0, i32 1
  %12 = getelementptr inbounds { i32, i32 }, { i32, i32 }* %11, i32 0, i32 0
  store i32 %layout.0, i32* %12, align 4
  %13 = getelementptr inbounds { i32, i32 }, { i32, i32 }* %11, i32 0, i32 1
  store i32 %layout.1, i32* %13, align 4
  %14 = bitcast %"core::option::Option<(core::ptr::non_null::NonNull<u8>, core::alloc::layout::Layout)>"* %0 to %"core::option::Option<(core::ptr::non_null::NonNull<u8>, core::alloc::layout::Layout)>::Some"*
  %15 = bitcast %"core::option::Option<(core::ptr::non_null::NonNull<u8>, core::alloc::layout::Layout)>::Some"* %14 to { i8*, { i32, i32 } }*
  %16 = bitcast { i8*, { i32, i32 } }* %15 to i8*
  %17 = bitcast { i8*, { i32, i32 } }* %_13 to i8*
  call void @llvm.memcpy.p0i8.p0i8.i32(i8* align 4 %16, i8* align 4 %17, i32 12, i1 false)
  br label %bb12
}

; <alloc::raw_vec::RawVec<T,A> as core::ops::drop::Drop>::drop
; Function Attrs: uwtable
define void @"_ZN77_$LT$alloc..raw_vec..RawVec$LT$T$C$A$GT$$u20$as$u20$core..ops..drop..Drop$GT$4drop17h2f04a6a41250f90fE"({ i8*, i32 }* align 4 dereferenceable(8) %self) unnamed_addr #0 {
start:
  %_2 = alloca %"core::option::Option<(core::ptr::non_null::NonNull<u8>, core::alloc::layout::Layout)>", align 4
; call alloc::raw_vec::RawVec<T,A>::current_memory
  call void @"_ZN5alloc7raw_vec19RawVec$LT$T$C$A$GT$14current_memory17h763d8a802df9cdd0E"(%"core::option::Option<(core::ptr::non_null::NonNull<u8>, core::alloc::layout::Layout)>"* noalias nocapture sret(%"core::option::Option<(core::ptr::non_null::NonNull<u8>, core::alloc::layout::Layout)>") dereferenceable(12) %_2, { i8*, i32 }* align 4 dereferenceable(8) %self)
  br label %bb1

bb1:                                              ; preds = %start
  %0 = bitcast %"core::option::Option<(core::ptr::non_null::NonNull<u8>, core::alloc::layout::Layout)>"* %_2 to {}**
  %1 = load {}*, {}** %0, align 4
  %2 = icmp eq {}* %1, null
  %_4 = select i1 %2, i32 0, i32 1
  %3 = icmp eq i32 %_4, 1
  br i1 %3, label %bb2, label %bb4

bb2:                                              ; preds = %bb1
  %4 = bitcast %"core::option::Option<(core::ptr::non_null::NonNull<u8>, core::alloc::layout::Layout)>"* %_2 to %"core::option::Option<(core::ptr::non_null::NonNull<u8>, core::alloc::layout::Layout)>::Some"*
  %5 = bitcast %"core::option::Option<(core::ptr::non_null::NonNull<u8>, core::alloc::layout::Layout)>::Some"* %4 to { i8*, { i32, i32 } }*
  %6 = bitcast { i8*, { i32, i32 } }* %5 to i8**
  %ptr = load i8*, i8** %6, align 4, !nonnull !1
  %7 = bitcast %"core::option::Option<(core::ptr::non_null::NonNull<u8>, core::alloc::layout::Layout)>"* %_2 to %"core::option::Option<(core::ptr::non_null::NonNull<u8>, core::alloc::layout::Layout)>::Some"*
  %8 = bitcast %"core::option::Option<(core::ptr::non_null::NonNull<u8>, core::alloc::layout::Layout)>::Some"* %7 to { i8*, { i32, i32 } }*
  %9 = getelementptr inbounds { i8*, { i32, i32 } }, { i8*, { i32, i32 } }* %8, i32 0, i32 1
  %10 = getelementptr inbounds { i32, i32 }, { i32, i32 }* %9, i32 0, i32 0
  %layout.0 = load i32, i32* %10, align 4
  %11 = getelementptr inbounds { i32, i32 }, { i32, i32 }* %9, i32 0, i32 1
  %layout.1 = load i32, i32* %11, align 4, !range !3
  %_7 = bitcast { i8*, i32 }* %self to %"alloc::alloc::Global"*
; call <alloc::alloc::Global as core::alloc::Allocator>::deallocate
  call void @"_ZN63_$LT$alloc..alloc..Global$u20$as$u20$core..alloc..Allocator$GT$10deallocate17h6662e42d0bcf9872E"(%"alloc::alloc::Global"* nonnull align 1 %_7, i8* nonnull %ptr, i32 %layout.0, i32 %layout.1)
  br label %bb3

bb4:                                              ; preds = %bb3, %bb1
  ret void

bb3:                                              ; preds = %bb2
  br label %bb4
}

; alloc::alloc::dealloc
; Function Attrs: inlinehint uwtable
define internal void @_ZN5alloc5alloc7dealloc17h734b59046f1fa650E(i8* %ptr, i32 %0, i32 %1) unnamed_addr #1 {
start:
  %layout = alloca { i32, i32 }, align 4
  %2 = getelementptr inbounds { i32, i32 }, { i32, i32 }* %layout, i32 0, i32 0
  store i32 %0, i32* %2, align 4
  %3 = getelementptr inbounds { i32, i32 }, { i32, i32 }* %layout, i32 0, i32 1
  store i32 %1, i32* %3, align 4
; call core::alloc::layout::Layout::size
  %_4 = call i32 @_ZN4core5alloc6layout6Layout4size17h1301ca5bd7d36e60E({ i32, i32 }* align 4 dereferenceable(8) %layout)
  br label %bb1

bb1:                                              ; preds = %start
; call core::alloc::layout::Layout::align
  %_6 = call i32 @_ZN4core5alloc6layout6Layout5align17h114eb09e24214e4fE({ i32, i32 }* align 4 dereferenceable(8) %layout)
  br label %bb2

bb2:                                              ; preds = %bb1
  call void @__rust_dealloc(i8* %ptr, i32 %_4, i32 %_6) #7
  br label %bb3

bb3:                                              ; preds = %bb2
  ret void
}

; <alloc::alloc::Global as core::alloc::Allocator>::deallocate
; Function Attrs: inlinehint uwtable
define internal void @"_ZN63_$LT$alloc..alloc..Global$u20$as$u20$core..alloc..Allocator$GT$10deallocate17h6662e42d0bcf9872E"(%"alloc::alloc::Global"* nonnull align 1 %self, i8* nonnull %ptr, i32 %0, i32 %1) unnamed_addr #1 {
start:
  %layout = alloca { i32, i32 }, align 4
  %2 = getelementptr inbounds { i32, i32 }, { i32, i32 }* %layout, i32 0, i32 0
  store i32 %0, i32* %2, align 4
  %3 = getelementptr inbounds { i32, i32 }, { i32, i32 }* %layout, i32 0, i32 1
  store i32 %1, i32* %3, align 4
; call core::alloc::layout::Layout::size
  %_4 = call i32 @_ZN4core5alloc6layout6Layout4size17h1301ca5bd7d36e60E({ i32, i32 }* align 4 dereferenceable(8) %layout)
  br label %bb1

bb1:                                              ; preds = %start
  %4 = icmp eq i32 %_4, 0
  br i1 %4, label %bb5, label %bb2

bb5:                                              ; preds = %bb1
  br label %bb6

bb2:                                              ; preds = %bb1
; call core::ptr::non_null::NonNull<T>::as_ptr
  %_6 = call i8* @"_ZN4core3ptr8non_null16NonNull$LT$T$GT$6as_ptr17haace0ff9c3760e67E"(i8* nonnull %ptr)
  br label %bb3

bb3:                                              ; preds = %bb2
  %5 = getelementptr inbounds { i32, i32 }, { i32, i32 }* %layout, i32 0, i32 0
  %_8.0 = load i32, i32* %5, align 4
  %6 = getelementptr inbounds { i32, i32 }, { i32, i32 }* %layout, i32 0, i32 1
  %_8.1 = load i32, i32* %6, align 4, !range !3
; call alloc::alloc::dealloc
  call void @_ZN5alloc5alloc7dealloc17h734b59046f1fa650E(i8* %_6, i32 %_8.0, i32 %_8.1)
  br label %bb4

bb4:                                              ; preds = %bb3
  br label %bb6

bb6:                                              ; preds = %bb5, %bb4
  ret void
}

; core::ptr::metadata::from_raw_parts_mut
; Function Attrs: inlinehint uwtable
define { [0 x i8]*, i32 } @_ZN4core3ptr8metadata18from_raw_parts_mut17h92173a1cb4ec4b7fE({}* %data_address, i32 %metadata) unnamed_addr #1 {
start:
  %_4 = alloca { i8*, i32 }, align 4
  %_3 = alloca %"core::ptr::metadata::PtrRepr<[u8]>", align 4
  %0 = bitcast { i8*, i32 }* %_4 to {}**
  store {}* %data_address, {}** %0, align 4
  %1 = getelementptr inbounds { i8*, i32 }, { i8*, i32 }* %_4, i32 0, i32 1
  store i32 %metadata, i32* %1, align 4
  %2 = bitcast %"core::ptr::metadata::PtrRepr<[u8]>"* %_3 to { i8*, i32 }*
  %3 = getelementptr inbounds { i8*, i32 }, { i8*, i32 }* %_4, i32 0, i32 0
  %4 = load i8*, i8** %3, align 4
  %5 = getelementptr inbounds { i8*, i32 }, { i8*, i32 }* %_4, i32 0, i32 1
  %6 = load i32, i32* %5, align 4
  %7 = getelementptr inbounds { i8*, i32 }, { i8*, i32 }* %2, i32 0, i32 0
  store i8* %4, i8** %7, align 4
  %8 = getelementptr inbounds { i8*, i32 }, { i8*, i32 }* %2, i32 0, i32 1
  store i32 %6, i32* %8, align 4
  %9 = bitcast %"core::ptr::metadata::PtrRepr<[u8]>"* %_3 to { [0 x i8]*, i32 }*
  %10 = getelementptr inbounds { [0 x i8]*, i32 }, { [0 x i8]*, i32 }* %9, i32 0, i32 0
  %11 = load [0 x i8]*, [0 x i8]** %10, align 4
  %12 = getelementptr inbounds { [0 x i8]*, i32 }, { [0 x i8]*, i32 }* %9, i32 0, i32 1
  %13 = load i32, i32* %12, align 4
  %14 = insertvalue { [0 x i8]*, i32 } undef, [0 x i8]* %11, 0
  %15 = insertvalue { [0 x i8]*, i32 } %14, i32 %13, 1
  ret { [0 x i8]*, i32 } %15
}

; core::ptr::non_null::NonNull<T>::new_unchecked
; Function Attrs: inlinehint uwtable
define nonnull i8* @"_ZN4core3ptr8non_null16NonNull$LT$T$GT$13new_unchecked17h94872f623ebc7f2aE"(i8* %ptr) unnamed_addr #1 {
start:
  %0 = alloca i8*, align 4
  store i8* %ptr, i8** %0, align 4
  %1 = load i8*, i8** %0, align 4, !nonnull !1
  ret i8* %1
}

; core::ptr::non_null::NonNull<T>::as_ptr
; Function Attrs: inlinehint uwtable
define i8* @"_ZN4core3ptr8non_null16NonNull$LT$T$GT$6as_ptr17haace0ff9c3760e67E"(i8* nonnull %self) unnamed_addr #1 {
start:
  ret i8* %self
}

; <core::ptr::non_null::NonNull<T> as core::convert::From<core::ptr::unique::Unique<T>>>::from
; Function Attrs: inlinehint uwtable
define nonnull i8* @"_ZN119_$LT$core..ptr..non_null..NonNull$LT$T$GT$$u20$as$u20$core..convert..From$LT$core..ptr..unique..Unique$LT$T$GT$$GT$$GT$4from17h70cc984ebe3d433aE"(i8* nonnull %unique) unnamed_addr #1 {
start:
; call core::ptr::unique::Unique<T>::as_ptr
  %_2 = call i8* @"_ZN4core3ptr6unique15Unique$LT$T$GT$6as_ptr17h1b282352fbc31614E"(i8* nonnull %unique)
  br label %bb1

bb1:                                              ; preds = %start
; call core::ptr::non_null::NonNull<T>::new_unchecked
  %0 = call nonnull i8* @"_ZN4core3ptr8non_null16NonNull$LT$T$GT$13new_unchecked17h94872f623ebc7f2aE"(i8* %_2)
  br label %bb2

bb2:                                              ; preds = %bb1
  ret i8* %0
}

; core::ptr::unique::Unique<T>::new_unchecked
; Function Attrs: inlinehint uwtable
define nonnull i8* @"_ZN4core3ptr6unique15Unique$LT$T$GT$13new_unchecked17hd3575f451c63d0f1E"(i8* %ptr) unnamed_addr #1 {
start:
  %0 = alloca i8*, align 4
  store i8* %ptr, i8** %0, align 4
  %1 = load i8*, i8** %0, align 4, !nonnull !1
  ret i8* %1
}

; core::ptr::unique::Unique<T>::as_ptr
; Function Attrs: inlinehint uwtable
define i8* @"_ZN4core3ptr6unique15Unique$LT$T$GT$6as_ptr17h1b282352fbc31614E"(i8* nonnull %self) unnamed_addr #1 {
start:
  ret i8* %self
}

; core::ptr::unique::Unique<T>::cast
; Function Attrs: inlinehint uwtable
define nonnull i8* @"_ZN4core3ptr6unique15Unique$LT$T$GT$4cast17h254ae24d35b86616E"(i8* nonnull %self) unnamed_addr #1 {
start:
; call core::ptr::unique::Unique<T>::as_ptr
  %_3 = call i8* @"_ZN4core3ptr6unique15Unique$LT$T$GT$6as_ptr17h1b282352fbc31614E"(i8* nonnull %self)
  br label %bb1

bb1:                                              ; preds = %start
; call core::ptr::unique::Unique<T>::new_unchecked
  %0 = call nonnull i8* @"_ZN4core3ptr6unique15Unique$LT$T$GT$13new_unchecked17hd3575f451c63d0f1E"(i8* %_3)
  br label %bb2

bb2:                                              ; preds = %bb1
  ret i8* %0
}

; core::ptr::mut_ptr::<impl *mut T>::is_null
; Function Attrs: inlinehint uwtable
define zeroext i1 @"_ZN4core3ptr7mut_ptr31_$LT$impl$u20$$BP$mut$u20$T$GT$7is_null17hab3cdeed69dfd898E"(i8* %self) unnamed_addr #1 {
start:
  br label %bb1

bb1:                                              ; preds = %start
; call core::ptr::mut_ptr::<impl *mut T>::guaranteed_eq
  %0 = call zeroext i1 @"_ZN4core3ptr7mut_ptr31_$LT$impl$u20$$BP$mut$u20$T$GT$13guaranteed_eq17hb0a6f8c6fb8c29b8E"(i8* %self, i8* null)
  br label %bb2

bb2:                                              ; preds = %bb1
  ret i1 %0
}

; core::ptr::mut_ptr::<impl *mut T>::guaranteed_eq
; Function Attrs: inlinehint uwtable
define zeroext i1 @"_ZN4core3ptr7mut_ptr31_$LT$impl$u20$$BP$mut$u20$T$GT$13guaranteed_eq17hb0a6f8c6fb8c29b8E"(i8* %self, i8* %other) unnamed_addr #1 {
start:
  %0 = alloca i8, align 1
  %1 = icmp eq i8* %self, %other
  %2 = zext i1 %1 to i8
  store i8 %2, i8* %0, align 1
  %3 = load i8, i8* %0, align 1, !range !2
  %4 = trunc i8 %3 to i1
  br label %bb1

bb1:                                              ; preds = %start
  ret i1 %4
}

; core::ptr::slice_from_raw_parts_mut
; Function Attrs: inlinehint uwtable
define { [0 x i8]*, i32 } @_ZN4core3ptr24slice_from_raw_parts_mut17h2aa38abd6c9ef022E(i8* %data, i32 %len) unnamed_addr #1 {
start:
  %0 = bitcast i8* %data to {}*
  br label %bb1

bb1:                                              ; preds = %start
; call core::ptr::metadata::from_raw_parts_mut
  %1 = call { [0 x i8]*, i32 } @_ZN4core3ptr8metadata18from_raw_parts_mut17h92173a1cb4ec4b7fE({}* %0, i32 %len)
  %2 = extractvalue { [0 x i8]*, i32 } %1, 0
  %3 = extractvalue { [0 x i8]*, i32 } %1, 1
  br label %bb2

bb2:                                              ; preds = %bb1
  %4 = insertvalue { [0 x i8]*, i32 } undef, [0 x i8]* %2, 0
  %5 = insertvalue { [0 x i8]*, i32 } %4, i32 %3, 1
  ret { [0 x i8]*, i32 } %5
}

; <T as core::convert::Into<U>>::into
; Function Attrs: uwtable
define nonnull i8* @"_ZN50_$LT$T$u20$as$u20$core..convert..Into$LT$U$GT$$GT$4into17h1e73537cf24fa724E"(i8* nonnull %self) unnamed_addr #0 {
start:
; call <core::ptr::non_null::NonNull<T> as core::convert::From<core::ptr::unique::Unique<T>>>::from
  %0 = call nonnull i8* @"_ZN119_$LT$core..ptr..non_null..NonNull$LT$T$GT$$u20$as$u20$core..convert..From$LT$core..ptr..unique..Unique$LT$T$GT$$GT$$GT$4from17h70cc984ebe3d433aE"(i8* nonnull %self)
  br label %bb1

bb1:                                              ; preds = %start
  ret i8* %0
}

; alloc::vec::Vec<T,A>::as_mut_ptr
; Function Attrs: inlinehint uwtable
define i8* @"_ZN5alloc3vec16Vec$LT$T$C$A$GT$10as_mut_ptr17hbc34e1e98c63cdffE"(%"alloc::vec::Vec<u8>"* align 4 dereferenceable(12) %self) unnamed_addr #1 {
start:
  %_2 = bitcast %"alloc::vec::Vec<u8>"* %self to { i8*, i32 }*
; call alloc::raw_vec::RawVec<T,A>::ptr
  %ptr = call i8* @"_ZN5alloc7raw_vec19RawVec$LT$T$C$A$GT$3ptr17h9d12bc8dde303465E"({ i8*, i32 }* align 4 dereferenceable(8) %_2)
  br label %bb1

bb1:                                              ; preds = %start
; call core::ptr::mut_ptr::<impl *mut T>::is_null
  %_5 = call zeroext i1 @"_ZN4core3ptr7mut_ptr31_$LT$impl$u20$$BP$mut$u20$T$GT$7is_null17hab3cdeed69dfd898E"(i8* %ptr)
  br label %bb2

bb2:                                              ; preds = %bb1
  %_4 = xor i1 %_5, true
  call void @llvm.assume(i1 %_4)
  br label %bb3

bb3:                                              ; preds = %bb2
  ret i8* %ptr
}

; <alloc::vec::Vec<T,A> as core::ops::drop::Drop>::drop
; Function Attrs: uwtable
define void @"_ZN70_$LT$alloc..vec..Vec$LT$T$C$A$GT$$u20$as$u20$core..ops..drop..Drop$GT$4drop17h13a40ed4aa199ba4E"(%"alloc::vec::Vec<u8>"* align 4 dereferenceable(12) %self) unnamed_addr #0 {
start:
; call alloc::vec::Vec<T,A>::as_mut_ptr
  %_3 = call i8* @"_ZN5alloc3vec16Vec$LT$T$C$A$GT$10as_mut_ptr17hbc34e1e98c63cdffE"(%"alloc::vec::Vec<u8>"* align 4 dereferenceable(12) %self)
  br label %bb1

bb1:                                              ; preds = %start
  %0 = getelementptr inbounds %"alloc::vec::Vec<u8>", %"alloc::vec::Vec<u8>"* %self, i32 0, i32 1
  %_5 = load i32, i32* %0, align 4
; call core::ptr::slice_from_raw_parts_mut
  %1 = call { [0 x i8]*, i32 } @_ZN4core3ptr24slice_from_raw_parts_mut17h2aa38abd6c9ef022E(i8* %_3, i32 %_5)
  %_2.0 = extractvalue { [0 x i8]*, i32 } %1, 0
  %_2.1 = extractvalue { [0 x i8]*, i32 } %1, 1
  br label %bb2

bb2:                                              ; preds = %bb1
  br label %bb3

bb3:                                              ; preds = %bb2
  ret void
}

; core::fmt::ArgumentV1::new
; Function Attrs: uwtable
define { i8*, i32* } @_ZN4core3fmt10ArgumentV13new17he06e9749c41ba732E(i32* align 4 dereferenceable(4) %x, i1 (i32*, %"core::fmt::Formatter"*)* nonnull %f) unnamed_addr #0 {
start:
  %0 = alloca %"core::fmt::Opaque"*, align 4
  %1 = alloca i1 (%"core::fmt::Opaque"*, %"core::fmt::Formatter"*)*, align 4
  %2 = alloca { i8*, i32* }, align 4
  %3 = bitcast i1 (i32*, %"core::fmt::Formatter"*)* %f to i1 (%"core::fmt::Opaque"*, %"core::fmt::Formatter"*)*
  store i1 (%"core::fmt::Opaque"*, %"core::fmt::Formatter"*)* %3, i1 (%"core::fmt::Opaque"*, %"core::fmt::Formatter"*)** %1, align 4
  %_3 = load i1 (%"core::fmt::Opaque"*, %"core::fmt::Formatter"*)*, i1 (%"core::fmt::Opaque"*, %"core::fmt::Formatter"*)** %1, align 4, !nonnull !1
  br label %bb1

bb1:                                              ; preds = %start
  %4 = bitcast i32* %x to %"core::fmt::Opaque"*
  store %"core::fmt::Opaque"* %4, %"core::fmt::Opaque"** %0, align 4
  %_5 = load %"core::fmt::Opaque"*, %"core::fmt::Opaque"** %0, align 4, !nonnull !1
  br label %bb2

bb2:                                              ; preds = %bb1
  %5 = bitcast { i8*, i32* }* %2 to %"core::fmt::Opaque"**
  store %"core::fmt::Opaque"* %_5, %"core::fmt::Opaque"** %5, align 4
  %6 = getelementptr inbounds { i8*, i32* }, { i8*, i32* }* %2, i32 0, i32 1
  %7 = bitcast i32** %6 to i1 (%"core::fmt::Opaque"*, %"core::fmt::Formatter"*)**
  store i1 (%"core::fmt::Opaque"*, %"core::fmt::Formatter"*)* %_3, i1 (%"core::fmt::Opaque"*, %"core::fmt::Formatter"*)** %7, align 4
  %8 = getelementptr inbounds { i8*, i32* }, { i8*, i32* }* %2, i32 0, i32 0
  %9 = load i8*, i8** %8, align 4, !nonnull !1
  %10 = getelementptr inbounds { i8*, i32* }, { i8*, i32* }* %2, i32 0, i32 1
  %11 = load i32*, i32** %10, align 4, !nonnull !1
  %12 = insertvalue { i8*, i32* } undef, i8* %9, 0
  %13 = insertvalue { i8*, i32* } %12, i32* %11, 1
  ret { i8*, i32* } %13
}

; core::fmt::Arguments::new_v1
; Function Attrs: inlinehint uwtable
define internal void @_ZN4core3fmt9Arguments6new_v117h2232bd004bee0a68E(%"core::fmt::Arguments"* noalias nocapture sret(%"core::fmt::Arguments") dereferenceable(24) %0, [0 x { [0 x i8]*, i32 }]* nonnull align 4 %pieces.0, i32 %pieces.1, [0 x { i8*, i32* }]* nonnull align 4 %args.0, i32 %args.1) unnamed_addr #1 {
start:
  %_16 = alloca { i32*, i32 }, align 4
  %_3 = alloca i8, align 1
  %_4 = icmp ult i32 %pieces.1, %args.1
  br i1 %_4, label %bb1, label %bb2

bb2:                                              ; preds = %start
  %_12 = add i32 %args.1, 1
  %_9 = icmp ugt i32 %pieces.1, %_12
  %1 = zext i1 %_9 to i8
  store i8 %1, i8* %_3, align 1
  br label %bb3

bb1:                                              ; preds = %start
  store i8 1, i8* %_3, align 1
  br label %bb3

bb3:                                              ; preds = %bb2, %bb1
  %2 = load i8, i8* %_3, align 1, !range !2
  %3 = trunc i8 %2 to i1
  br i1 %3, label %bb4, label %bb5

bb5:                                              ; preds = %bb3
  %4 = bitcast { i32*, i32 }* %_16 to {}**
  store {}* null, {}** %4, align 4
  %5 = bitcast %"core::fmt::Arguments"* %0 to { [0 x { [0 x i8]*, i32 }]*, i32 }*
  %6 = getelementptr inbounds { [0 x { [0 x i8]*, i32 }]*, i32 }, { [0 x { [0 x i8]*, i32 }]*, i32 }* %5, i32 0, i32 0
  store [0 x { [0 x i8]*, i32 }]* %pieces.0, [0 x { [0 x i8]*, i32 }]** %6, align 4
  %7 = getelementptr inbounds { [0 x { [0 x i8]*, i32 }]*, i32 }, { [0 x { [0 x i8]*, i32 }]*, i32 }* %5, i32 0, i32 1
  store i32 %pieces.1, i32* %7, align 4
  %8 = getelementptr inbounds %"core::fmt::Arguments", %"core::fmt::Arguments"* %0, i32 0, i32 1
  %9 = getelementptr inbounds { i32*, i32 }, { i32*, i32 }* %_16, i32 0, i32 0
  %10 = load i32*, i32** %9, align 4
  %11 = getelementptr inbounds { i32*, i32 }, { i32*, i32 }* %_16, i32 0, i32 1
  %12 = load i32, i32* %11, align 4
  %13 = getelementptr inbounds { i32*, i32 }, { i32*, i32 }* %8, i32 0, i32 0
  store i32* %10, i32** %13, align 4
  %14 = getelementptr inbounds { i32*, i32 }, { i32*, i32 }* %8, i32 0, i32 1
  store i32 %12, i32* %14, align 4
  %15 = getelementptr inbounds %"core::fmt::Arguments", %"core::fmt::Arguments"* %0, i32 0, i32 2
  %16 = getelementptr inbounds { [0 x { i8*, i32* }]*, i32 }, { [0 x { i8*, i32* }]*, i32 }* %15, i32 0, i32 0
  store [0 x { i8*, i32* }]* %args.0, [0 x { i8*, i32* }]** %16, align 4
  %17 = getelementptr inbounds { [0 x { i8*, i32* }]*, i32 }, { [0 x { i8*, i32* }]*, i32 }* %15, i32 0, i32 1
  store i32 %args.1, i32* %17, align 4
  ret void

bb4:                                              ; preds = %bb3
; call core::panicking::panic
  call void @_ZN4core9panicking5panic17hb525ece2bbd6bd45E([0 x i8]* nonnull align 1 bitcast (<{ [12 x i8] }>* @alloc25 to [0 x i8]*), i32 12, %"core::panic::location::Location"* align 4 dereferenceable(16) bitcast (<{ i8*, [12 x i8] }>* @alloc27 to %"core::panic::location::Location"*)) #8
  unreachable
}

; core::alloc::layout::Layout::from_size_align_unchecked
; Function Attrs: inlinehint uwtable
define internal { i32, i32 } @_ZN4core5alloc6layout6Layout25from_size_align_unchecked17h5a3756bd8ba8830aE(i32 %size, i32 %align) unnamed_addr #1 {
start:
  %0 = alloca { i32, i32 }, align 4
; call core::num::nonzero::NonZeroUsize::new_unchecked
  %_4 = call i32 @_ZN4core3num7nonzero12NonZeroUsize13new_unchecked17hc89e2eed4083b3ceE(i32 %align), !range !3
  br label %bb1

bb1:                                              ; preds = %start
  %1 = bitcast { i32, i32 }* %0 to i32*
  store i32 %size, i32* %1, align 4
  %2 = getelementptr inbounds { i32, i32 }, { i32, i32 }* %0, i32 0, i32 1
  store i32 %_4, i32* %2, align 4
  %3 = getelementptr inbounds { i32, i32 }, { i32, i32 }* %0, i32 0, i32 0
  %4 = load i32, i32* %3, align 4
  %5 = getelementptr inbounds { i32, i32 }, { i32, i32 }* %0, i32 0, i32 1
  %6 = load i32, i32* %5, align 4, !range !3
  %7 = insertvalue { i32, i32 } undef, i32 %4, 0
  %8 = insertvalue { i32, i32 } %7, i32 %6, 1
  ret { i32, i32 } %8
}

; core::alloc::layout::Layout::size
; Function Attrs: inlinehint uwtable
define internal i32 @_ZN4core5alloc6layout6Layout4size17h1301ca5bd7d36e60E({ i32, i32 }* align 4 dereferenceable(8) %self) unnamed_addr #1 {
start:
  %0 = bitcast { i32, i32 }* %self to i32*
  %1 = load i32, i32* %0, align 4
  ret i32 %1
}

; core::alloc::layout::Layout::align
; Function Attrs: inlinehint uwtable
define internal i32 @_ZN4core5alloc6layout6Layout5align17h114eb09e24214e4fE({ i32, i32 }* align 4 dereferenceable(8) %self) unnamed_addr #1 {
start:
  %0 = getelementptr inbounds { i32, i32 }, { i32, i32 }* %self, i32 0, i32 1
  %_2 = load i32, i32* %0, align 4, !range !3
; call core::num::nonzero::NonZeroUsize::get
  %1 = call i32 @_ZN4core3num7nonzero12NonZeroUsize3get17h3aab8e8f672f4d1dE(i32 %_2)
  br label %bb1

bb1:                                              ; preds = %start
  ret i32 %1
}

; core::num::nonzero::NonZeroUsize::new_unchecked
; Function Attrs: inlinehint uwtable
define internal i32 @_ZN4core3num7nonzero12NonZeroUsize13new_unchecked17hc89e2eed4083b3ceE(i32 %n) unnamed_addr #1 {
start:
  %0 = alloca i32, align 4
  store i32 %n, i32* %0, align 4
  %1 = load i32, i32* %0, align 4, !range !3
  ret i32 %1
}

; core::num::nonzero::NonZeroUsize::get
; Function Attrs: inlinehint uwtable
define internal i32 @_ZN4core3num7nonzero12NonZeroUsize3get17h3aab8e8f672f4d1dE(i32 %self) unnamed_addr #1 {
start:
  ret i32 %self
}

; Function Attrs: uwtable
declare i32 @rust_eh_personality(i32, i32, i64, %"unwind::libunwind::_Unwind_Exception"*, %"unwind::libunwind::_Unwind_Context"*) unnamed_addr #0

; core::fmt::num::imp::<impl core::fmt::LowerExp for isize>::fmt
; Function Attrs: uwtable
declare zeroext i1 @"_ZN4core3fmt3num3imp55_$LT$impl$u20$core..fmt..LowerExp$u20$for$u20$isize$GT$3fmt17h0a79f3cb35f043a2E"(i32* align 4 dereferenceable(4), %"core::fmt::Formatter"* align 4 dereferenceable(36)) unnamed_addr #0

; alloc::fmt::format
; Function Attrs: uwtable
declare void @_ZN5alloc3fmt6format17h40feed6254217e4eE(%"alloc::string::String"* noalias nocapture sret(%"alloc::string::String") dereferenceable(12), %"core::fmt::Arguments"* noalias nocapture dereferenceable(24)) unnamed_addr #0

; Function Attrs: argmemonly nofree nounwind willreturn
declare void @llvm.memcpy.p0i8.p0i8.i32(i8* noalias nocapture writeonly, i8* noalias nocapture readonly, i32, i1 immarg) #2

; Function Attrs: nounwind uwtable
declare void @__rust_dealloc(i8*, i32, i32) unnamed_addr #3

; Function Attrs: inaccessiblememonly nofree nosync nounwind willreturn
declare void @llvm.assume(i1 noundef) #4

; core::panicking::panic
; Function Attrs: cold noinline noreturn uwtable
declare void @_ZN4core9panicking5panic17hb525ece2bbd6bd45E([0 x i8]* nonnull align 1, i32, %"core::panic::location::Location"* align 4 dereferenceable(16)) unnamed_addr #5

attributes #0 = { uwtable "frame-pointer"="all" "target-cpu"="pentium4" }
attributes #1 = { inlinehint uwtable "frame-pointer"="all" "target-cpu"="pentium4" }
attributes #2 = { argmemonly nofree nounwind willreturn }
attributes #3 = { nounwind uwtable "frame-pointer"="all" "target-cpu"="pentium4" }
attributes #4 = { inaccessiblememonly nofree nosync nounwind willreturn }
attributes #5 = { cold noinline noreturn uwtable "frame-pointer"="all" "target-cpu"="pentium4" }
attributes #6 = { cold }
attributes #7 = { nounwind }
attributes #8 = { noreturn }

!llvm.module.flags = !{!0}

!0 = !{i32 7, !"PIC Level", i32 2}
!1 = !{}
!2 = !{i8 0, i8 2}
!3 = !{i32 1, i32 0}
